Certificate:
    Data:
        Version: 3 (0x2)
        Serial Number: 4096 (0x1000)
    Signature Algorithm: sha1WithRSAEncryption
        Issuer: C=US, ST=Michigan, L=Ann Arbor, O=MXL, OU=Operations, CN=Mercury2
        Validity
            Not Before: Mar 25 20:20:37 2013 GMT
            Not After : Mar 23 20:20:37 2023 GMT
        Subject: C=US, ST=Michigan, O=MXL, OU=Operations, CN=Test Hardware Manager
        Subject Public Key Info:
            Public Key Algorithm: rsaEncryption
                Public-Key: (2048 bit)
                Modulus:
                    00:f4:ed:f8:f5:b6:cf:19:cf:72:05:11:7e:ae:ef:
                    e8:a3:74:1e:31:51:ec:c6:51:d0:64:7e:d4:3f:e8:
                    a9:6e:58:94:97:4d:2c:bc:c9:12:a2:6d:a3:f3:f1:
                    57:b6:63:55:73:60:e8:9d:94:be:be:2e:a9:a7:7f:
                    53:4f:ac:29:4f:07:97:ec:e2:6c:bb:09:c1:ac:37:
                    34:d1:cb:3a:ca:f5:5c:6f:5b:2a:19:d3:36:c8:2b:
                    51:01:5c:a2:85:4d:14:01:d9:49:98:f1:14:0c:f7:
                    44:2d:7a:4d:2f:b4:77:72:c6:5a:69:f7:68:71:bb:
                    93:5b:08:69:43:9f:d9:f7:18:f6:3b:cc:5d:46:be:
                    6b:16:67:21:56:59:9b:0b:b3:84:13:f2:a8:5a:0f:
                    a8:5e:e3:28:b8:e7:db:40:d9:e4:10:aa:ef:81:53:
                    ce:df:2c:22:ec:2d:fd:1b:50:ca:3d:b7:5f:43:29:
                    fb:58:a3:33:1c:26:12:88:14:37:ac:23:12:79:34:
                    41:6f:ab:7a:97:e6:c2:33:a8:89:12:d5:2a:f7:6e:
                    be:c8:7d:88:2a:b7:98:45:64:e6:5f:4f:63:b9:6b:
                    57:1b:85:74:e1:bc:b3:11:93:8e:05:5f:10:f6:45:
                    4f:f4:94:eb:2f:6a:17:e1:e0:ce:b5:22:fc:75:8b:
                    33:b1
                Exponent: 65537 (0x10001)
        X509v3 extensions:
            X509v3 Basic Constraints: 
                CA:FALSE
            Netscape Comment: 
                OpenSSL Generated Certificate
            X509v3 Subject Key Identifier: 
                31:72:75:68:ED:3A:82:F3:B7:C8:88:1E:A7:E2:2B:45:8A:69:4A:F3
            X509v3 Authority Key Identifier: 
                keyid:43:2E:1B:94:AC:50:6A:09:0A:CC:6A:9F:48:A6:FB:06:4D:B7:5F:93

    Signature Algorithm: sha1WithRSAEncryption
         b0:b5:bd:8d:e5:63:d1:d1:e5:12:62:8a:44:23:aa:2f:04:87:
         45:2a:ff:4b:6a:b6:3b:c0:45:e0:fe:8c:39:e4:e0:51:46:55:
         42:b2:1f:43:ce:34:a0:a1:fe:52:ab:05:09:d9:da:56:b0:e9:
         41:ee:aa:d1:bb:74:c1:c1:fb:3e:34:2e:1e:7a:9d:09:94:bd:
         23:1e:2d:26:e6:db:4c:53:97:6a:30:fc:6d:80:de:06:4a:e6:
         97:e0:76:16:a9:86:17:63:d4:42:54:06:74:99:62:4e:1b:39:
         02:2f:e6:22:f2:d4:a1:ad:2b:b5:2e:58:bd:92:77:e6:49:5e:
         e0:90:b4:54:ad:22:7c:b6:c9:5c:eb:bb:4a:10:eb:1d:78:8c:
         23:de:f3:df:6c:a6:2e:20:c1:34:83:cf:4d:65:7a:9f:19:c6:
         74:c2:e4:8d:08:0f:be:6e:34:96:14:d6:0b:ff:40:f6:46:3c:
         53:74:da:6e:e0:4e:7e:ad:da:d3:17:24:91:28:1e:54:6a:35:
         ae:9d:ce:3e:fe:72:90:85:fc:2a:08:75:5d:52:1c:d7:1d:27:
         78:18:63:3a:e7:9a:24:26:34:bd:f3:68:5f:3e:87:4b:fb:3f:
         15:7e:87:3a:c3:bf:2a:b5:37:d7:dd:38:7c:d1:1a:33:10:b8:
         8d:f0:f3:ff
-----BEGIN CERTIFICATE-----
MIIDxDCCAqygAwIBAgICEAAwDQYJKoZIhvcNAQEFBQAwajELMAkGA1UEBhMCVVMx
ETAPBgNVBAgMCE1pY2hpZ2FuMRIwEAYDVQQHDAlBbm4gQXJib3IxDDAKBgNVBAoM
A01YTDETMBEGA1UECwwKT3BlcmF0aW9uczERMA8GA1UEAwwITWVyY3VyeTIwHhcN
MTMwMzI1MjAyMDM3WhcNMjMwMzIzMjAyMDM3WjBjMQswCQYDVQQGEwJVUzERMA8G
A1UECAwITWljaGlnYW4xDDAKBgNVBAoMA01YTDETMBEGA1UECwwKT3BlcmF0aW9u
czEeMBwGA1UEAwwVVGVzdCBIYXJkd2FyZSBNYW5hZ2VyMIIBIjANBgkqhkiG9w0B
AQEFAAOCAQ8AMIIBCgKCAQEA9O349bbPGc9yBRF+ru/oo3QeMVHsxlHQZH7UP+ip
bliUl00svMkSom2j8/FXtmNVc2DonZS+vi6pp39TT6wpTweX7OJsuwnBrDc00cs6
yvVcb1sqGdM2yCtRAVyihU0UAdlJmPEUDPdELXpNL7R3csZaafdocbuTWwhpQ5/Z
9xj2O8xdRr5rFmchVlmbC7OEE/KoWg+oXuMouOfbQNnkEKrvgVPO3ywi7C39G1DK
PbdfQyn7WKMzHCYSiBQ3rCMSeTRBb6t6l+bCM6iJEtUq926+yH2IKreYRWTmX09j
uWtXG4V04byzEZOOBV8Q9kVP9JTrL2oX4eDOtSL8dYszsQIDAQABo3sweTAJBgNV
HRMEAjAAMCwGCWCGSAGG+EIBDQQfFh1PcGVuU1NMIEdlbmVyYXRlZCBDZXJ0aWZp
Y2F0ZTAdBgNVHQ4EFgQUMXJ1aO06gvO3yIgep+IrRYppSvMwHwYDVR0jBBgwFoAU
Qy4blKxQagkKzGqfSKb7Bk23X5MwDQYJKoZIhvcNAQEFBQADggEBALC1vY3lY9HR
5RJiikQjqi8Eh0Uq/0tqtjvAReD+jDnk4FFGVUKyH0PONKCh/lKrBQnZ2law6UHu
qtG7dMHB+z40Lh56nQmUvSMeLSbm20xTl2ow/G2A3gZK5pfgdhaphhdj1EJUBnSZ
Yk4bOQIv5iLy1KGtK7UuWL2Sd+ZJXuCQtFStIny2yVzru0oQ6x14jCPe899spi4g
wTSDz01lep8ZxnTC5I0ID75uNJYU1gv/QPZGPFN02m7gTn6t2tMXJJEoHlRqNa6d
zj7+cpCF/CoIdV1SHNcdJ3gYYzrnmiQmNL3zaF8+h0v7PxV+hzrDvyq1N9fdOHzR
GjMQuI3w8/8=
-----END CERTIFICATE-----
